target datalayout = "e-m:e-p270:32:32-p271:32:32-p272:64:64-i64:64-i128:128-f80:128-n8:16:32:64-S128"
target triple = "x86_64-pc-linux-gnu"

%class.RangeCoder = type { i32, i32, i32, %"struct.RangeCoder::SUBRANGE", ptr }
%"struct.RangeCoder::SUBRANGE" = type { i32, i32, i32 }
%class.SubAllocator = type { i64, [38 x i8], [128 x i8], i8, ptr, ptr, ptr, [38 x %"struct.SubAllocator::RAR_NODE"], ptr, ptr, ptr, ptr }
%"struct.SubAllocator::RAR_NODE" = type { ptr }
%class.ModelPPM = type <{ i8, [25 x [16 x %struct.RARPPM_SEE2_CONTEXT]], %struct.RARPPM_SEE2_CONTEXT, [3 x i8], ptr, ptr, ptr, ptr, i32, i32, i32, i32, i32, i32, [256 x i8], [256 x i8], [256 x i8], [256 x i8], i8, i8, i8, i8, [128 x [64 x i16]], [4 x i8], %class.RangeCoder, %class.SubAllocator }>
%struct.RARPPM_SEE2_CONTEXT = type { i16, i8, i8 }
%class.Unpack = type { ptr, %class.BitInput, %class.Array, %class.Array, %class.Array.0, [4 x i32], i32, i32, i32, i64, i64, i32, i32, %struct.UnpackBlockHeader, %struct.UnpackBlockTables, i64, ptr, %class.FragmentedWindow, i8, i64, i8, i8, i8, i64, i8, [256 x i16], [256 x i16], [256 x i16], [256 x i16], [256 x i8], [256 x i8], [256 x i8], i32, i32, i32, i32, i32, i32, i32, i32, i32, i32, i32, i32, i32, i32, [4 x %struct.DecodeTable], [1028 x i8], i8, i32, i32, i32, [4 x %struct.AudioVariables], i32, i32, %class.ModelPPM, i32, [404 x i8], i32, i8, i8, i8, %class.RarVM, %class.BitInput, %class.Array.1, %class.Array.1, %class.Array.2, i32, i64, i64 }
%class.Array = type { ptr, i64, i64, i64 }
%class.Array.0 = type { ptr, i64, i64, i64 }
%struct.UnpackBlockHeader = type { i32, i32, i32, i32, i8, i8 }
%struct.UnpackBlockTables = type { %struct.DecodeTable, %struct.DecodeTable, %struct.DecodeTable, %struct.DecodeTable, %struct.DecodeTable }
%struct.DecodeTable = type { i32, [16 x i32], [16 x i32], i32, [1024 x i8], [1024 x i16], [306 x i16] }
%class.FragmentedWindow = type { [32 x ptr], [32 x i64] }
%struct.AudioVariables = type { i32, i32, i32, i32, i32, i32, i32, i32, i32, i32, [11 x i32], i32, i32 }
%class.RarVM = type { ptr, [8 x i32] }
%class.BitInput = type { i32, i32, i8, ptr }
%class.Array.1 = type { ptr, i64, i64, i64 }
%class.Array.2 = type { ptr, i64, i64, i64 }

; Function Attrs: mustprogress nounwind uwtable
define void @_ZN6Unpack12CopyString15Ejj(ptr noundef nonnull align 8 dereferenceable(59688) %0, i32 noundef %1, i32 noundef %2) #1 align 2 {
  %4 = alloca ptr, align 8
  %5 = alloca i32, align 4
  %6 = alloca i32, align 4
  store ptr %0, ptr %4, align 8
  store i32 %1, ptr %5, align 4
  store i32 %2, ptr %6, align 4
  %7 = load ptr, ptr %4, align 8
  %8 = load i32, ptr %6, align 4
  %9 = zext i32 %8 to i64
  %10 = getelementptr inbounds %class.Unpack, ptr %7, i32 0, i32 19
  %11 = load i64, ptr %10, align 8
  %12 = sub nsw i64 %11, %9
  store i64 %12, ptr %10, align 8
  br label %13

13:                                               ; preds = %17, %3
  %14 = load i32, ptr %6, align 4
  %15 = add i32 %14, -1
  store i32 %15, ptr %6, align 4
  %16 = icmp ne i32 %14, 0
  br i1 %16, label %17, label %42

17:                                               ; preds = %13
  %18 = getelementptr inbounds %class.Unpack, ptr %7, i32 0, i32 16
  %19 = load ptr, ptr %18, align 8
  %20 = getelementptr inbounds %class.Unpack, ptr %7, i32 0, i32 9
  %21 = load i64, ptr %20, align 8
  %22 = load i32, ptr %5, align 4
  %23 = zext i32 %22 to i64
  %24 = sub i64 %21, %23
  %25 = getelementptr inbounds %class.Unpack, ptr %7, i32 0, i32 69
  %26 = load i64, ptr %25, align 8
  %27 = and i64 %24, %26
  %28 = getelementptr inbounds i8, ptr %19, i64 %27
  %29 = load i8, ptr %28, align 1
  %30 = getelementptr inbounds %class.Unpack, ptr %7, i32 0, i32 16
  %31 = load ptr, ptr %30, align 8
  %32 = getelementptr inbounds %class.Unpack, ptr %7, i32 0, i32 9
  %33 = load i64, ptr %32, align 8
  %34 = getelementptr inbounds i8, ptr %31, i64 %33
  store i8 %29, ptr %34, align 1
  %35 = getelementptr inbounds %class.Unpack, ptr %7, i32 0, i32 9
  %36 = load i64, ptr %35, align 8
  %37 = add i64 %36, 1
  %38 = getelementptr inbounds %class.Unpack, ptr %7, i32 0, i32 69
  %39 = load i64, ptr %38, align 8
  %40 = and i64 %37, %39
  %41 = getelementptr inbounds %class.Unpack, ptr %7, i32 0, i32 9
  store i64 %40, ptr %41, align 8
  br label %13, !llvm.loop !51

42:                                               ; preds = %13
  ret void
}