; Function Attrs: mustprogress nofree norecurse nosync nounwind memory(readwrite, inaccessiblemem: none) uwtable
define void @_ZN6Unpack12CopyString15Ejj(ptr nocapture noundef nonnull align 8 dereferenceable(59688) %0, i32 noundef %1, i32 noundef %2) local_unnamed_addr #9 align 2 {
  %4 = zext i32 %2 to i64
  %5 = getelementptr inbounds i8, ptr %0, i64 19840
  %6 = load i64, ptr %5, align 8
  %7 = sub nsw i64 %6, %4
  store i64 %7, ptr %5, align 8
  %.not3 = icmp eq i32 %2, 0
  br i1 %.not3, label %._crit_edge, label %.lr.ph

.lr.ph:                                           ; preds = %3
  %8 = getelementptr inbounds i8, ptr %0, i64 19312
  %9 = getelementptr inbounds i8, ptr %0, i64 160
  %10 = zext i32 %1 to i64
  %11 = getelementptr inbounds i8, ptr %0, i64 59680
  %.pre = load i64, ptr %9, align 8
  %.pre5 = load i64, ptr %11, align 8
  br label %12

12:                                               ; preds = %.lr.ph, %12
  %13 = phi i64 [ %.pre5, %.lr.ph ], [ %24, %12 ]
  %14 = phi i64 [ %.pre, %.lr.ph ], [ %25, %12 ]
  %.04 = phi i32 [ %2, %.lr.ph ], [ %15, %12 ]
  %15 = add i32 %.04, -1
  %16 = load ptr, ptr %8, align 8
  %17 = sub i64 %14, %10
  %18 = and i64 %17, %13
  %19 = getelementptr inbounds i8, ptr %16, i64 %18
  %20 = load i8, ptr %19, align 1
  %21 = getelementptr inbounds i8, ptr %16, i64 %14
  store i8 %20, ptr %21, align 1
  %22 = load i64, ptr %9, align 8
  %23 = add i64 %22, 1
  %24 = load i64, ptr %11, align 8
  %25 = and i64 %23, %24
  store i64 %25, ptr %9, align 8
  %.not = icmp eq i32 %15, 0
  br i1 %.not, label %._crit_edge, label %12, !llvm.loop !51

._crit_edge:                                      ; preds = %12, %3
  ret void
}